; Function Attrs: mustprogress nounwind uwtable
define dso_local void @_ZN4llvm18AArch64InstPrinter16printSyspXzrPairEPKNS_6MCInstEjRKNS_15MCSubtargetInfoERNS_11raw_ostreamE(ptr nocapture nonnull readnone align 8 %0, ptr nocapture noundef readonly %1, i32 noundef %2, ptr nocapture nonnull readnone align 8 %3, ptr noundef nonnull align 8 dereferenceable(48) %4) local_unnamed_addr #1 align 2 {
  %6 = getelementptr inbounds nuw i8, ptr %1, i64 16
  %7 = zext i32 %2 to i64
  %8 = load ptr, ptr %6, align 8
  %9 = getelementptr inbounds %"class.llvm::MCOperand", ptr %8, i64 %7, i32 1
  %10 = load i32, ptr %9, align 8
  %11 = add i32 %10, -1
  %12 = zext i32 %11 to i64
  %13 = getelementptr inbounds [701 x i16], ptr @_ZZN4llvm23AArch64AppleInstPrinter15getRegisterNameENS_10MCRegisterEjE24RegAsmOffsetNoRegAltName, i64 0, i64 %12
  %14 = load i16, ptr %13, align 2
  %15 = zext i16 %14 to i64
  %16 = getelementptr inbounds i8, ptr @_ZZN4llvm18AArch64InstPrinter15getRegisterNameENS_10MCRegisterEjE19AsmStrsNoRegAltName, i64 %15
  %17 = tail call noundef i64 @strlen(ptr noundef nonnull dereferenceable(1) %16) #22
  %18 = getelementptr inbounds nuw i8, ptr %4, i64 24
  %19 = load ptr, ptr %18, align 8
  %20 = getelementptr inbounds nuw i8, ptr %4, i64 32
  %21 = load ptr, ptr %20, align 8
  %22 = ptrtoint ptr %19 to i64
  %23 = ptrtoint ptr %21 to i64
  %24 = sub i64 %22, %23
  %25 = icmp ugt i64 %17, %24
  br i1 %25, label %26, label %28

26:                                               ; preds = %5
  %27 = tail call noundef nonnull align 8 dereferenceable(48) ptr @_ZN4llvm11raw_ostream5writeEPKcm(ptr noundef nonnull align 8 dereferenceable(48) %4, ptr noundef nonnull %16, i64 noundef %17) #22
  %.phi.trans.insert = getelementptr inbounds nuw i8, ptr %27, i64 32
  %.pre = load ptr, ptr %.phi.trans.insert, align 8
  br label %_ZN4llvm11raw_ostreamlsEPKc.exit

28:                                               ; preds = %5
  %.not.i2.i = icmp eq i64 %17, 0
  br i1 %.not.i2.i, label %_ZN4llvm11raw_ostreamlsEPKc.exit, label %29

29:                                               ; preds = %28
  tail call void @llvm.memcpy.p0.p0.i64(ptr align 1 %21, ptr nonnull align 1 %16, i64 %17, i1 false)
  %30 = load ptr, ptr %20, align 8
  %31 = getelementptr inbounds i8, ptr %30, i64 %17
  store ptr %31, ptr %20, align 8
  br label %_ZN4llvm11raw_ostreamlsEPKc.exit

_ZN4llvm11raw_ostreamlsEPKc.exit:                 ; preds = %26, %28, %29
  %32 = phi ptr [ %.pre, %26 ], [ %31, %29 ], [ %21, %28 ]
  %.0.i.i = phi ptr [ %27, %26 ], [ %4, %29 ], [ %4, %28 ]
  %33 = getelementptr inbounds nuw i8, ptr %.0.i.i, i64 24
  %34 = load ptr, ptr %33, align 8
  %35 = ptrtoint ptr %34 to i64
  %36 = ptrtoint ptr %32 to i64
  %37 = sub i64 %35, %36
  %38 = icmp ult i64 %37, 2
  br i1 %38, label %39, label %41

39:                                               ; preds = %_ZN4llvm11raw_ostreamlsEPKc.exit
  %40 = tail call noundef nonnull align 8 dereferenceable(48) ptr @_ZN4llvm11raw_ostream5writeEPKcm(ptr noundef nonnull align 8 dereferenceable(48) %.0.i.i, ptr noundef nonnull @.str.1, i64 noundef 2) #22
  %.phi.trans.insert12 = getelementptr inbounds nuw i8, ptr %40, i64 32
  %.pre13 = load ptr, ptr %.phi.trans.insert12, align 8
  br label %_ZN4llvm11raw_ostreamlsEPKc.exit6

41:                                               ; preds = %_ZN4llvm11raw_ostreamlsEPKc.exit
  %42 = getelementptr inbounds nuw i8, ptr %.0.i.i, i64 32
  store i16 8236, ptr %32, align 1
  %43 = load ptr, ptr %42, align 8
  %44 = getelementptr inbounds i8, ptr %43, i64 2
  store ptr %44, ptr %42, align 8
  br label %_ZN4llvm11raw_ostreamlsEPKc.exit6

_ZN4llvm11raw_ostreamlsEPKc.exit6:                ; preds = %39, %41
  %45 = phi ptr [ %.pre13, %39 ], [ %44, %41 ]
  %.0.i.i5 = phi ptr [ %40, %39 ], [ %.0.i.i, %41 ]
  %46 = tail call noundef i64 @strlen(ptr noundef nonnull dereferenceable(1) %16) #22
  %47 = getelementptr inbounds nuw i8, ptr %.0.i.i5, i64 24
  %48 = load ptr, ptr %47, align 8
  %49 = getelementptr inbounds nuw i8, ptr %.0.i.i5, i64 32
  %50 = ptrtoint ptr %48 to i64
  %51 = ptrtoint ptr %45 to i64
  %52 = sub i64 %50, %51
  %53 = icmp ugt i64 %46, %52
  br i1 %53, label %54, label %56

54:                                               ; preds = %_ZN4llvm11raw_ostreamlsEPKc.exit6
  %55 = tail call noundef nonnull align 8 dereferenceable(48) ptr @_ZN4llvm11raw_ostream5writeEPKcm(ptr noundef nonnull align 8 dereferenceable(48) %.0.i.i5, ptr noundef nonnull %16, i64 noundef %46) #22
  br label %_ZN4llvm11raw_ostreamlsEPKc.exit9

56:                                               ; preds = %_ZN4llvm11raw_ostreamlsEPKc.exit6
  %.not.i2.i7 = icmp eq i64 %46, 0
  br i1 %.not.i2.i7, label %_ZN4llvm11raw_ostreamlsEPKc.exit9, label %57

57:                                               ; preds = %56
  tail call void @llvm.memcpy.p0.p0.i64(ptr align 1 %45, ptr nonnull align 1 %16, i64 %46, i1 false)
  %58 = load ptr, ptr %49, align 8
  %59 = getelementptr inbounds i8, ptr %58, i64 %46
  store ptr %59, ptr %49, align 8
  br label %_ZN4llvm11raw_ostreamlsEPKc.exit9

_ZN4llvm11raw_ostreamlsEPKc.exit9:                ; preds = %54, %56, %57
  ret void
}